; ModuleID = '39/376.c'
source_filename = "39/376.c"
target datalayout = "e-m:e-p270:32:32-p271:32:32-p272:64:64-i64:64-f80:128-n8:16:32:64-S128"
target triple = "x86_64-pc-linux-gnu"

%struct.stu = type { [22 x i8], i32, i32, i8, i8, i32, i32 }

@.str = private unnamed_addr constant [3 x i8] c"%d\00", align 1
@.str.1 = private unnamed_addr constant [18 x i8] c"%s %d %d %c %c %d\00", align 1
@.str.2 = private unnamed_addr constant [4 x i8] c"%s\0A\00", align 1
@.str.3 = private unnamed_addr constant [7 x i8] c"%d\0A%d\0A\00", align 1

; Function Attrs: noinline nounwind uwtable
define dso_local void @main() #0 {
  %1 = alloca [100 x %struct.stu], align 16
  %2 = alloca i32, align 4
  %3 = alloca i32, align 4
  %4 = alloca i32, align 4
  %5 = alloca i32, align 4
  %6 = getelementptr inbounds [100 x %struct.stu], [100 x %struct.stu]* %1, i64 0, i64 0
  %7 = bitcast %struct.stu* %6 to i8*
  call void @llvm.memset.p0i8.i64(i8* align 16 %7, i8 0, i64 4400, i1 false)
  store i32 0, i32* %4, align 4
  store i32 0, i32* %5, align 4
  %8 = call i32 (i8*, ...) @__isoc99_scanf(i8* getelementptr inbounds ([3 x i8], [3 x i8]* @.str, i64 0, i64 0), i32* %3)
  store i32 0, i32* %2, align 4
  br label %9

9:                                                ; preds = %160, %0
  %10 = load i32, i32* %2, align 4
  %11 = load i32, i32* %3, align 4
  %12 = icmp slt i32 %10, %11
  br i1 %12, label %13, label %163

13:                                               ; preds = %9
  %14 = getelementptr inbounds [100 x %struct.stu], [100 x %struct.stu]* %1, i64 0, i64 0
  %15 = load i32, i32* %2, align 4
  %16 = sext i32 %15 to i64
  %17 = getelementptr inbounds %struct.stu, %struct.stu* %14, i64 %16
  %18 = getelementptr inbounds %struct.stu, %struct.stu* %17, i32 0, i32 0
  %19 = getelementptr inbounds [22 x i8], [22 x i8]* %18, i64 0, i64 0
  %20 = getelementptr inbounds [100 x %struct.stu], [100 x %struct.stu]* %1, i64 0, i64 0
  %21 = load i32, i32* %2, align 4
  %22 = sext i32 %21 to i64
  %23 = getelementptr inbounds %struct.stu, %struct.stu* %20, i64 %22
  %24 = getelementptr inbounds %struct.stu, %struct.stu* %23, i32 0, i32 1
  %25 = getelementptr inbounds [100 x %struct.stu], [100 x %struct.stu]* %1, i64 0, i64 0
  %26 = load i32, i32* %2, align 4
  %27 = sext i32 %26 to i64
  %28 = getelementptr inbounds %struct.stu, %struct.stu* %25, i64 %27
  %29 = getelementptr inbounds %struct.stu, %struct.stu* %28, i32 0, i32 2
  %30 = getelementptr inbounds [100 x %struct.stu], [100 x %struct.stu]* %1, i64 0, i64 0
  %31 = load i32, i32* %2, align 4
  %32 = sext i32 %31 to i64
  %33 = getelementptr inbounds %struct.stu, %struct.stu* %30, i64 %32
  %34 = getelementptr inbounds %struct.stu, %struct.stu* %33, i32 0, i32 3
  %35 = getelementptr inbounds [100 x %struct.stu], [100 x %struct.stu]* %1, i64 0, i64 0
  %36 = load i32, i32* %2, align 4
  %37 = sext i32 %36 to i64
  %38 = getelementptr inbounds %struct.stu, %struct.stu* %35, i64 %37
  %39 = getelementptr inbounds %struct.stu, %struct.stu* %38, i32 0, i32 4
  %40 = getelementptr inbounds [100 x %struct.stu], [100 x %struct.stu]* %1, i64 0, i64 0
  %41 = load i32, i32* %2, align 4
  %42 = sext i32 %41 to i64
  %43 = getelementptr inbounds %struct.stu, %struct.stu* %40, i64 %42
  %44 = getelementptr inbounds %struct.stu, %struct.stu* %43, i32 0, i32 5
  %45 = call i32 (i8*, ...) @__isoc99_scanf(i8* getelementptr inbounds ([18 x i8], [18 x i8]* @.str.1, i64 0, i64 0), i8* %19, i32* %24, i32* %29, i8* %34, i8* %39, i32* %44)
  %46 = getelementptr inbounds [100 x %struct.stu], [100 x %struct.stu]* %1, i64 0, i64 0
  %47 = load i32, i32* %2, align 4
  %48 = sext i32 %47 to i64
  %49 = getelementptr inbounds %struct.stu, %struct.stu* %46, i64 %48
  %50 = getelementptr inbounds %struct.stu, %struct.stu* %49, i32 0, i32 1
  %51 = load i32, i32* %50, align 4
  %52 = icmp sgt i32 %51, 80
  br i1 %52, label %53, label %69

53:                                               ; preds = %13
  %54 = getelementptr inbounds [100 x %struct.stu], [100 x %struct.stu]* %1, i64 0, i64 0
  %55 = load i32, i32* %2, align 4
  %56 = sext i32 %55 to i64
  %57 = getelementptr inbounds %struct.stu, %struct.stu* %54, i64 %56
  %58 = getelementptr inbounds %struct.stu, %struct.stu* %57, i32 0, i32 5
  %59 = load i32, i32* %58, align 4
  %60 = icmp ne i32 %59, 0
  br i1 %60, label %61, label %69

61:                                               ; preds = %53
  %62 = getelementptr inbounds [100 x %struct.stu], [100 x %struct.stu]* %1, i64 0, i64 0
  %63 = load i32, i32* %2, align 4
  %64 = sext i32 %63 to i64
  %65 = getelementptr inbounds %struct.stu, %struct.stu* %62, i64 %64
  %66 = getelementptr inbounds %struct.stu, %struct.stu* %65, i32 0, i32 6
  %67 = load i32, i32* %66, align 4
  %68 = add nsw i32 %67, 8000
  store i32 %68, i32* %66, align 4
  br label %69

69:                                               ; preds = %61, %53, %13
  %70 = getelementptr inbounds [100 x %struct.stu], [100 x %struct.stu]* %1, i64 0, i64 0
  %71 = load i32, i32* %2, align 4
  %72 = sext i32 %71 to i64
  %73 = getelementptr inbounds %struct.stu, %struct.stu* %70, i64 %72
  %74 = getelementptr inbounds %struct.stu, %struct.stu* %73, i32 0, i32 1
  %75 = load i32, i32* %74, align 4
  %76 = icmp sgt i32 %75, 85
  br i1 %76, label %77, label %93

77:                                               ; preds = %69
  %78 = getelementptr inbounds [100 x %struct.stu], [100 x %struct.stu]* %1, i64 0, i64 0
  %79 = load i32, i32* %2, align 4
  %80 = sext i32 %79 to i64
  %81 = getelementptr inbounds %struct.stu, %struct.stu* %78, i64 %80
  %82 = getelementptr inbounds %struct.stu, %struct.stu* %81, i32 0, i32 2
  %83 = load i32, i32* %82, align 4
  %84 = icmp sgt i32 %83, 80
  br i1 %84, label %85, label %93

85:                                               ; preds = %77
  %86 = getelementptr inbounds [100 x %struct.stu], [100 x %struct.stu]* %1, i64 0, i64 0
  %87 = load i32, i32* %2, align 4
  %88 = sext i32 %87 to i64
  %89 = getelementptr inbounds %struct.stu, %struct.stu* %86, i64 %88
  %90 = getelementptr inbounds %struct.stu, %struct.stu* %89, i32 0, i32 6
  %91 = load i32, i32* %90, align 4
  %92 = add nsw i32 %91, 4000
  store i32 %92, i32* %90, align 4
  br label %93

93:                                               ; preds = %85, %77, %69
  %94 = getelementptr inbounds [100 x %struct.stu], [100 x %struct.stu]* %1, i64 0, i64 0
  %95 = load i32, i32* %2, align 4
  %96 = sext i32 %95 to i64
  %97 = getelementptr inbounds %struct.stu, %struct.stu* %94, i64 %96
  %98 = getelementptr inbounds %struct.stu, %struct.stu* %97, i32 0, i32 1
  %99 = load i32, i32* %98, align 4
  %100 = icmp sgt i32 %99, 90
  br i1 %100, label %101, label %109

101:                                              ; preds = %93
  %102 = getelementptr inbounds [100 x %struct.stu], [100 x %struct.stu]* %1, i64 0, i64 0
  %103 = load i32, i32* %2, align 4
  %104 = sext i32 %103 to i64
  %105 = getelementptr inbounds %struct.stu, %struct.stu* %102, i64 %104
  %106 = getelementptr inbounds %struct.stu, %struct.stu* %105, i32 0, i32 6
  %107 = load i32, i32* %106, align 4
  %108 = add nsw i32 %107, 2000
  store i32 %108, i32* %106, align 4
  br label %109

109:                                              ; preds = %101, %93
  %110 = getelementptr inbounds [100 x %struct.stu], [100 x %struct.stu]* %1, i64 0, i64 0
  %111 = load i32, i32* %2, align 4
  %112 = sext i32 %111 to i64
  %113 = getelementptr inbounds %struct.stu, %struct.stu* %110, i64 %112
  %114 = getelementptr inbounds %struct.stu, %struct.stu* %113, i32 0, i32 1
  %115 = load i32, i32* %114, align 4
  %116 = icmp sgt i32 %115, 85
  br i1 %116, label %117, label %134

117:                                              ; preds = %109
  %118 = getelementptr inbounds [100 x %struct.stu], [100 x %struct.stu]* %1, i64 0, i64 0
  %119 = load i32, i32* %2, align 4
  %120 = sext i32 %119 to i64
  %121 = getelementptr inbounds %struct.stu, %struct.stu* %118, i64 %120
  %122 = getelementptr inbounds %struct.stu, %struct.stu* %121, i32 0, i32 4
  %123 = load i8, i8* %122, align 1
  %124 = sext i8 %123 to i32
  %125 = icmp eq i32 %124, 89
  br i1 %125, label %126, label %134

126:                                              ; preds = %117
  %127 = getelementptr inbounds [100 x %struct.stu], [100 x %struct.stu]* %1, i64 0, i64 0
  %128 = load i32, i32* %2, align 4
  %129 = sext i32 %128 to i64
  %130 = getelementptr inbounds %struct.stu, %struct.stu* %127, i64 %129
  %131 = getelementptr inbounds %struct.stu, %struct.stu* %130, i32 0, i32 6
  %132 = load i32, i32* %131, align 4
  %133 = add nsw i32 %132, 1000
  store i32 %133, i32* %131, align 4
  br label %134

134:                                              ; preds = %126, %117, %109
  %135 = getelementptr inbounds [100 x %struct.stu], [100 x %struct.stu]* %1, i64 0, i64 0
  %136 = load i32, i32* %2, align 4
  %137 = sext i32 %136 to i64
  %138 = getelementptr inbounds %struct.stu, %struct.stu* %135, i64 %137
  %139 = getelementptr inbounds %struct.stu, %struct.stu* %138, i32 0, i32 2
  %140 = load i32, i32* %139, align 4
  %141 = icmp sgt i32 %140, 80
  br i1 %141, label %142, label %159

142:                                              ; preds = %134
  %143 = getelementptr inbounds [100 x %struct.stu], [100 x %struct.stu]* %1, i64 0, i64 0
  %144 = load i32, i32* %2, align 4
  %145 = sext i32 %144 to i64
  %146 = getelementptr inbounds %struct.stu, %struct.stu* %143, i64 %145
  %147 = getelementptr inbounds %struct.stu, %struct.stu* %146, i32 0, i32 3
  %148 = load i8, i8* %147, align 4
  %149 = sext i8 %148 to i32
  %150 = icmp eq i32 %149, 89
  br i1 %150, label %151, label %159

151:                                              ; preds = %142
  %152 = getelementptr inbounds [100 x %struct.stu], [100 x %struct.stu]* %1, i64 0, i64 0
  %153 = load i32, i32* %2, align 4
  %154 = sext i32 %153 to i64
  %155 = getelementptr inbounds %struct.stu, %struct.stu* %152, i64 %154
  %156 = getelementptr inbounds %struct.stu, %struct.stu* %155, i32 0, i32 6
  %157 = load i32, i32* %156, align 4
  %158 = add nsw i32 %157, 850
  store i32 %158, i32* %156, align 4
  br label %159

159:                                              ; preds = %151, %142, %134
  br label %160

160:                                              ; preds = %159
  %161 = load i32, i32* %2, align 4
  %162 = add nsw i32 %161, 1
  store i32 %162, i32* %2, align 4
  br label %9

163:                                              ; preds = %9
  store i32 0, i32* %2, align 4
  br label %164

164:                                              ; preds = %193, %163
  %165 = load i32, i32* %2, align 4
  %166 = load i32, i32* %3, align 4
  %167 = icmp slt i32 %165, %166
  br i1 %167, label %168, label %196

168:                                              ; preds = %164
  %169 = load i32, i32* %4, align 4
  %170 = getelementptr inbounds [100 x %struct.stu], [100 x %struct.stu]* %1, i64 0, i64 0
  %171 = load i32, i32* %2, align 4
  %172 = sext i32 %171 to i64
  %173 = getelementptr inbounds %struct.stu, %struct.stu* %170, i64 %172
  %174 = getelementptr inbounds %struct.stu, %struct.stu* %173, i32 0, i32 6
  %175 = load i32, i32* %174, align 4
  %176 = icmp slt i32 %169, %175
  br i1 %176, label %177, label %184

177:                                              ; preds = %168
  %178 = getelementptr inbounds [100 x %struct.stu], [100 x %struct.stu]* %1, i64 0, i64 0
  %179 = load i32, i32* %2, align 4
  %180 = sext i32 %179 to i64
  %181 = getelementptr inbounds %struct.stu, %struct.stu* %178, i64 %180
  %182 = getelementptr inbounds %struct.stu, %struct.stu* %181, i32 0, i32 6
  %183 = load i32, i32* %182, align 4
  store i32 %183, i32* %4, align 4
  br label %184

184:                                              ; preds = %177, %168
  %185 = getelementptr inbounds [100 x %struct.stu], [100 x %struct.stu]* %1, i64 0, i64 0
  %186 = load i32, i32* %2, align 4
  %187 = sext i32 %186 to i64
  %188 = getelementptr inbounds %struct.stu, %struct.stu* %185, i64 %187
  %189 = getelementptr inbounds %struct.stu, %struct.stu* %188, i32 0, i32 6
  %190 = load i32, i32* %189, align 4
  %191 = load i32, i32* %5, align 4
  %192 = add nsw i32 %191, %190
  store i32 %192, i32* %5, align 4
  br label %193

193:                                              ; preds = %184
  %194 = load i32, i32* %2, align 4
  %195 = add nsw i32 %194, 1
  store i32 %195, i32* %2, align 4
  br label %164

196:                                              ; preds = %164
  store i32 0, i32* %2, align 4
  br label %197

197:                                              ; preds = %219, %196
  %198 = load i32, i32* %2, align 4
  %199 = load i32, i32* %3, align 4
  %200 = icmp slt i32 %198, %199
  br i1 %200, label %201, label %222

201:                                              ; preds = %197
  %202 = load i32, i32* %4, align 4
  %203 = getelementptr inbounds [100 x %struct.stu], [100 x %struct.stu]* %1, i64 0, i64 0
  %204 = load i32, i32* %2, align 4
  %205 = sext i32 %204 to i64
  %206 = getelementptr inbounds %struct.stu, %struct.stu* %203, i64 %205
  %207 = getelementptr inbounds %struct.stu, %struct.stu* %206, i32 0, i32 6
  %208 = load i32, i32* %207, align 4
  %209 = icmp eq i32 %202, %208
  br i1 %209, label %210, label %218

210:                                              ; preds = %201
  %211 = getelementptr inbounds [100 x %struct.stu], [100 x %struct.stu]* %1, i64 0, i64 0
  %212 = load i32, i32* %2, align 4
  %213 = sext i32 %212 to i64
  %214 = getelementptr inbounds %struct.stu, %struct.stu* %211, i64 %213
  %215 = getelementptr inbounds %struct.stu, %struct.stu* %214, i32 0, i32 0
  %216 = getelementptr inbounds [22 x i8], [22 x i8]* %215, i64 0, i64 0
  %217 = call i32 (i8*, ...) @printf(i8* getelementptr inbounds ([4 x i8], [4 x i8]* @.str.2, i64 0, i64 0), i8* %216)
  br label %222

218:                                              ; preds = %201
  br label %219

219:                                              ; preds = %218
  %220 = load i32, i32* %2, align 4
  %221 = add nsw i32 %220, 1
  store i32 %221, i32* %2, align 4
  br label %197

222:                                              ; preds = %210, %197
  %223 = load i32, i32* %4, align 4
  %224 = load i32, i32* %5, align 4
  %225 = call i32 (i8*, ...) @printf(i8* getelementptr inbounds ([7 x i8], [7 x i8]* @.str.3, i64 0, i64 0), i32 %223, i32 %224)
  ret void
}

; Function Attrs: argmemonly nounwind willreturn
declare void @llvm.memset.p0i8.i64(i8* nocapture writeonly, i8, i64, i1 immarg) #1

declare dso_local i32 @__isoc99_scanf(i8*, ...) #2

declare dso_local i32 @printf(i8*, ...) #2


!llvm.module.flags = !{!0}
!llvm.ident = !{!1}

!0 = !{i32 1, !"wchar_size", i32 4}
!1 = !{!"clang version 10.0.0-4ubuntu1 "}
